target datalayout = "e-m:e-p270:32:32-p271:32:32-p272:64:64-i64:64-i128:128-f80:128-n8:16:32:64-S128"
target triple = "x86_64-pc-linux-gnu"

%struct.nstime_t = type { i64, i32 }

; Function Attrs: null_pointer_is_valid sspstrong uwtable
define hidden void @ntp_to_nstime(ptr noundef %0, i32 noundef %1, ptr noundef %2) #0 {
  %4 = alloca ptr, align 8
  %5 = alloca i32, align 4
  %6 = alloca ptr, align 8
  %7 = alloca i32, align 4
  store ptr %0, ptr %4, align 8
  store i32 %1, ptr %5, align 4
  store ptr %2, ptr %6, align 8
  call void @llvm.lifetime.start.p0(i64 4, ptr %7) #10
  %8 = load ptr, ptr %4, align 8
  %9 = load i32, ptr %5, align 4
  %10 = call i32 @tvb_get_ntohl(ptr noundef %8, i32 noundef %9)
  store i32 %10, ptr %7, align 4
  %11 = load i32, ptr %7, align 4
  %12 = icmp ne i32 %11, 0
  br i1 %12, label %13, label %19

13:                                               ; preds = %3
  %14 = load i32, ptr %7, align 4
  %15 = sub i32 %14, -2085978496
  %16 = zext i32 %15 to i64
  %17 = load ptr, ptr %6, align 8
  %18 = getelementptr inbounds nuw %struct.nstime_t, ptr %17, i32 0, i32 0
  store i64 %16, ptr %18, align 8
  br label %24

19:                                               ; preds = %3
  %20 = load i32, ptr %7, align 4
  %21 = zext i32 %20 to i64
  %22 = load ptr, ptr %6, align 8
  %23 = getelementptr inbounds nuw %struct.nstime_t, ptr %22, i32 0, i32 0
  store i64 %21, ptr %23, align 8
  br label %24

24:                                               ; preds = %19, %13
  %25 = load ptr, ptr %4, align 8
  %26 = load i32, ptr %5, align 4
  %27 = add i32 %26, 4
  %28 = call i32 @tvb_get_ntohl(ptr noundef %25, i32 noundef %27)
  %29 = uitofp i32 %28 to double
  %30 = fdiv double %29, 0x40112E0BE826D695
  %31 = fptosi double %30 to i32
  %32 = load ptr, ptr %6, align 8
  %33 = getelementptr inbounds nuw %struct.nstime_t, ptr %32, i32 0, i32 1
  store i32 %31, ptr %33, align 8
  call void @llvm.lifetime.end.p0(i64 4, ptr %7) #10
  ret void
}