; Function Attrs: null_pointer_is_valid sspstrong uwtable
define hidden void @ntp_to_nstime(ptr noundef %0, i32 noundef %1, ptr noundef writeonly captures(none) initializes((0, 12)) %2) local_unnamed_addr #0 {
  %4 = tail call i32 @tvb_get_ntohl(ptr noundef %0, i32 noundef %1)
  %.not = icmp eq i32 %4, 0
  %5 = add i32 %4, 2085978496
  %narrow = select i1 %.not, i32 0, i32 %5
  %storemerge = zext i32 %narrow to i64
  store i64 %storemerge, ptr %2, align 8
  %6 = add i32 %1, 4
  %7 = tail call i32 @tvb_get_ntohl(ptr noundef %0, i32 noundef %6)
  %8 = uitofp i32 %7 to double
  %9 = fdiv double %8, 0x40112E0BE826D695
  %10 = fptosi double %9 to i32
  %11 = getelementptr inbounds nuw i8, ptr %2, i64 8
  store i32 %10, ptr %11, align 8
  ret void
}